target datalayout = "e-m:e-p270:32:32-p271:32:32-p272:64:64-i64:64-i128:128-f80:128-n8:16:32:64-S128"
target triple = "x86_64-pc-linux-gnu"

%struct.VuDevRegion = type { i64, i64, i64, i64, i64 }
%struct.VuDev = type { i32, i32, ptr, ptr, %struct.VuDevInflightInfo, i32, %union.pthread_mutex_t, i32, i64, ptr, i64, i64, i8, i16, ptr, ptr, ptr, ptr, ptr, i32, i8 }
%struct.VuDevInflightInfo = type { i32, ptr, i64 }
%union.pthread_mutex_t = type { %struct.__pthread_mutex_s }
%struct.__pthread_mutex_s = type { i32, i32, i32, i32, i32, i16, i16, %struct.__pthread_internal_list }
%struct.__pthread_internal_list = type { ptr, ptr }
%struct.VuVirtq = type { %struct.VuRing, ptr, ptr, i16, i64, i16, i16, i16, i16, i8, i8, i32, ptr, i32, i32, i32, i32, i8, %struct.vhost_vring_addr }
%struct.VuRing = type { i32, ptr, ptr, ptr, i64, i32 }
%struct.vhost_vring_addr = type { i32, i32, i64, i64, i64, i64 }

; Function Attrs: nounwind uwtable
define internal ptr @qva_to_va(ptr noundef %0, i64 noundef %1) #0 {
  %3 = alloca ptr, align 8
  %4 = alloca ptr, align 8
  %5 = alloca i64, align 8
  %6 = alloca i32, align 4
  %7 = alloca ptr, align 8
  %8 = alloca i32, align 4
  store ptr %0, ptr %4, align 8
  store i64 %1, ptr %5, align 8
  call void @llvm.lifetime.start.p0(i64 4, ptr %6) #13
  store i32 0, ptr %6, align 4, !annotation !4
  store i32 0, ptr %6, align 4
  br label %9

9:                                                ; preds = %57, %2
  %10 = load i32, ptr %6, align 4
  %11 = load ptr, ptr %4, align 8
  %12 = getelementptr inbounds nuw %struct.VuDev, ptr %11, i32 0, i32 1
  %13 = load i32, ptr %12, align 4
  %14 = icmp ult i32 %10, %13
  br i1 %14, label %15, label %60

15:                                               ; preds = %9
  call void @llvm.lifetime.start.p0(i64 8, ptr %7) #13
  %16 = load ptr, ptr %4, align 8
  %17 = getelementptr inbounds nuw %struct.VuDev, ptr %16, i32 0, i32 2
  %18 = load ptr, ptr %17, align 8
  %19 = load i32, ptr %6, align 4
  %20 = zext i32 %19 to i64
  %21 = getelementptr inbounds nuw %struct.VuDevRegion, ptr %18, i64 %20
  store ptr %21, ptr %7, align 8
  %22 = load i64, ptr %5, align 8
  %23 = load ptr, ptr %7, align 8
  %24 = getelementptr inbounds nuw %struct.VuDevRegion, ptr %23, i32 0, i32 2
  %25 = load i64, ptr %24, align 8
  %26 = icmp uge i64 %22, %25
  br i1 %26, label %27, label %53

27:                                               ; preds = %15
  %28 = load i64, ptr %5, align 8
  %29 = load ptr, ptr %7, align 8
  %30 = getelementptr inbounds nuw %struct.VuDevRegion, ptr %29, i32 0, i32 2
  %31 = load i64, ptr %30, align 8
  %32 = load ptr, ptr %7, align 8
  %33 = getelementptr inbounds nuw %struct.VuDevRegion, ptr %32, i32 0, i32 1
  %34 = load i64, ptr %33, align 8
  %35 = add i64 %31, %34
  %36 = icmp ult i64 %28, %35
  br i1 %36, label %37, label %53

37:                                               ; preds = %27
  %38 = load i64, ptr %5, align 8
  %39 = inttoptr i64 %38 to ptr
  %40 = load ptr, ptr %7, align 8
  %41 = getelementptr inbounds nuw %struct.VuDevRegion, ptr %40, i32 0, i32 2
  %42 = load i64, ptr %41, align 8
  %43 = sub i64 0, %42
  %44 = getelementptr inbounds i8, ptr %39, i64 %43
  %45 = load ptr, ptr %7, align 8
  %46 = getelementptr inbounds nuw %struct.VuDevRegion, ptr %45, i32 0, i32 4
  %47 = load i64, ptr %46, align 8
  %48 = getelementptr inbounds nuw i8, ptr %44, i64 %47
  %49 = load ptr, ptr %7, align 8
  %50 = getelementptr inbounds nuw %struct.VuDevRegion, ptr %49, i32 0, i32 3
  %51 = load i64, ptr %50, align 8
  %52 = getelementptr inbounds nuw i8, ptr %48, i64 %51
  store ptr %52, ptr %3, align 8
  store i32 1, ptr %8, align 4
  br label %54

53:                                               ; preds = %27, %15
  store i32 0, ptr %8, align 4
  br label %54

54:                                               ; preds = %53, %37
  call void @llvm.lifetime.end.p0(i64 8, ptr %7) #13
  %55 = load i32, ptr %8, align 4
  switch i32 %55, label %61 [
    i32 0, label %56
  ]

56:                                               ; preds = %54
  br label %57

57:                                               ; preds = %56
  %58 = load i32, ptr %6, align 4
  %59 = add i32 %58, 1
  store i32 %59, ptr %6, align 4
  br label %9

60:                                               ; preds = %9
  store ptr null, ptr %3, align 8
  store i32 1, ptr %8, align 4
  br label %61

61:                                               ; preds = %60, %54
  call void @llvm.lifetime.end.p0(i64 4, ptr %6) #13
  %62 = load ptr, ptr %3, align 8
  ret ptr %62
}

; Function Attrs: nounwind uwtable
define internal zeroext i1 @map_ring(ptr noundef %0, ptr noundef %1) #0 {
  %3 = alloca ptr, align 8
  %4 = alloca ptr, align 8
  store ptr %0, ptr %3, align 8
  store ptr %1, ptr %4, align 8
  %5 = load ptr, ptr %3, align 8
  %6 = load ptr, ptr %4, align 8
  %7 = getelementptr inbounds nuw %struct.VuVirtq, ptr %6, i32 0, i32 18
  %8 = getelementptr inbounds nuw %struct.vhost_vring_addr, ptr %7, i32 0, i32 2
  %9 = load i64, ptr %8, align 8
  %10 = call ptr @qva_to_va(ptr noundef %5, i64 noundef %9)
  %11 = load ptr, ptr %4, align 8
  %12 = getelementptr inbounds nuw %struct.VuVirtq, ptr %11, i32 0, i32 0
  %13 = getelementptr inbounds nuw %struct.VuRing, ptr %12, i32 0, i32 1
  store ptr %10, ptr %13, align 8
  %14 = load ptr, ptr %3, align 8
  %15 = load ptr, ptr %4, align 8
  %16 = getelementptr inbounds nuw %struct.VuVirtq, ptr %15, i32 0, i32 18
  %17 = getelementptr inbounds nuw %struct.vhost_vring_addr, ptr %16, i32 0, i32 3
  %18 = load i64, ptr %17, align 8
  %19 = call ptr @qva_to_va(ptr noundef %14, i64 noundef %18)
  %20 = load ptr, ptr %4, align 8
  %21 = getelementptr inbounds nuw %struct.VuVirtq, ptr %20, i32 0, i32 0
  %22 = getelementptr inbounds nuw %struct.VuRing, ptr %21, i32 0, i32 3
  store ptr %19, ptr %22, align 8
  %23 = load ptr, ptr %3, align 8
  %24 = load ptr, ptr %4, align 8
  %25 = getelementptr inbounds nuw %struct.VuVirtq, ptr %24, i32 0, i32 18
  %26 = getelementptr inbounds nuw %struct.vhost_vring_addr, ptr %25, i32 0, i32 4
  %27 = load i64, ptr %26, align 8
  %28 = call ptr @qva_to_va(ptr noundef %23, i64 noundef %27)
  %29 = load ptr, ptr %4, align 8
  %30 = getelementptr inbounds nuw %struct.VuVirtq, ptr %29, i32 0, i32 0
  %31 = getelementptr inbounds nuw %struct.VuRing, ptr %30, i32 0, i32 2
  store ptr %28, ptr %31, align 8
  br label %32

32:                                               ; preds = %2
  br label %33

33:                                               ; preds = %32
  br label %34

34:                                               ; preds = %33
  br label %35

35:                                               ; preds = %34
  br label %36

36:                                               ; preds = %35
  br label %37

37:                                               ; preds = %36
  br label %38

38:                                               ; preds = %37
  br label %39

39:                                               ; preds = %38
  %40 = load ptr, ptr %4, align 8
  %41 = getelementptr inbounds nuw %struct.VuVirtq, ptr %40, i32 0, i32 0
  %42 = getelementptr inbounds nuw %struct.VuRing, ptr %41, i32 0, i32 1
  %43 = load ptr, ptr %42, align 8
  %44 = icmp ne ptr %43, null
  br i1 %44, label %45, label %57

45:                                               ; preds = %39
  %46 = load ptr, ptr %4, align 8
  %47 = getelementptr inbounds nuw %struct.VuVirtq, ptr %46, i32 0, i32 0
  %48 = getelementptr inbounds nuw %struct.VuRing, ptr %47, i32 0, i32 3
  %49 = load ptr, ptr %48, align 8
  %50 = icmp ne ptr %49, null
  br i1 %50, label %51, label %57

51:                                               ; preds = %45
  %52 = load ptr, ptr %4, align 8
  %53 = getelementptr inbounds nuw %struct.VuVirtq, ptr %52, i32 0, i32 0
  %54 = getelementptr inbounds nuw %struct.VuRing, ptr %53, i32 0, i32 2
  %55 = load ptr, ptr %54, align 8
  %56 = icmp ne ptr %55, null
  br label %57

57:                                               ; preds = %51, %45, %39
  %58 = phi i1 [ false, %45 ], [ false, %39 ], [ %56, %51 ]
  %59 = xor i1 %58, true
  ret i1 %59
}