; Function Attrs: nofree norecurse nosync nounwind memory(read, argmem: readwrite, inaccessiblemem: none) uwtable
define internal fastcc zeroext i1 @map_ring(ptr noundef readonly captures(none) %0, ptr noundef captures(none) %1) unnamed_addr #1 {
  %3 = getelementptr inbounds nuw i8, ptr %1, i64 136
  %4 = load i64, ptr %3, align 8
  %5 = getelementptr inbounds nuw i8, ptr %0, i64 4
  %6 = load i32, ptr %5, align 4
  %.not24.i = icmp eq i32 %6, 0
  br i1 %.not24.i, label %qva_to_va.exit, label %.lr.ph.i

.lr.ph.i:                                         ; preds = %2
  %7 = getelementptr inbounds nuw i8, ptr %0, i64 8
  %8 = load ptr, ptr %7, align 8
  %wide.trip.count.i = zext i32 %6 to i64
  br label %9

9:                                                ; preds = %28, %.lr.ph.i
  %indvars.iv.i = phi i64 [ 0, %.lr.ph.i ], [ %indvars.iv.next.i, %28 ]
  %10 = getelementptr inbounds nuw %struct.VuDevRegion, ptr %8, i64 %indvars.iv.i
  %11 = getelementptr inbounds nuw i8, ptr %10, i64 16
  %12 = load i64, ptr %11, align 8
  %.not.i = icmp ult i64 %4, %12
  br i1 %.not.i, label %28, label %13

13:                                               ; preds = %9
  %14 = getelementptr inbounds nuw i8, ptr %10, i64 8
  %15 = load i64, ptr %14, align 8
  %16 = add i64 %15, %12
  %17 = icmp ult i64 %4, %16
  br i1 %17, label %18, label %28

18:                                               ; preds = %13
  %19 = inttoptr i64 %4 to ptr
  %20 = sub i64 0, %12
  %21 = getelementptr inbounds i8, ptr %19, i64 %20
  %22 = getelementptr inbounds nuw i8, ptr %10, i64 32
  %23 = load i64, ptr %22, align 8
  %24 = getelementptr inbounds nuw i8, ptr %21, i64 %23
  %25 = getelementptr inbounds nuw i8, ptr %10, i64 24
  %26 = load i64, ptr %25, align 8
  %27 = getelementptr inbounds nuw i8, ptr %24, i64 %26
  br label %qva_to_va.exit

28:                                               ; preds = %13, %9
  %indvars.iv.next.i = add nuw nsw i64 %indvars.iv.i, 1
  %exitcond.not.i = icmp eq i64 %indvars.iv.next.i, %wide.trip.count.i
  br i1 %exitcond.not.i, label %qva_to_va.exit, label %9

qva_to_va.exit:                                   ; preds = %28, %2, %18
  %.2.i = phi ptr [ %27, %18 ], [ null, %2 ], [ null, %28 ]
  %29 = getelementptr inbounds nuw i8, ptr %1, i64 8
  store ptr %.2.i, ptr %29, align 8
  %30 = getelementptr inbounds nuw i8, ptr %1, i64 144
  %31 = load i64, ptr %30, align 8
  %32 = load i32, ptr %5, align 4
  %.not24.i13 = icmp eq i32 %32, 0
  br i1 %.not24.i13, label %qva_to_va.exit21, label %.lr.ph.i14

.lr.ph.i14:                                       ; preds = %qva_to_va.exit
  %33 = getelementptr inbounds nuw i8, ptr %0, i64 8
  %34 = load ptr, ptr %33, align 8
  %wide.trip.count.i15 = zext i32 %32 to i64
  br label %35

35:                                               ; preds = %54, %.lr.ph.i14
  %indvars.iv.i16 = phi i64 [ 0, %.lr.ph.i14 ], [ %indvars.iv.next.i18, %54 ]
  %36 = getelementptr inbounds nuw %struct.VuDevRegion, ptr %34, i64 %indvars.iv.i16
  %37 = getelementptr inbounds nuw i8, ptr %36, i64 16
  %38 = load i64, ptr %37, align 8
  %.not.i17 = icmp ult i64 %31, %38
  br i1 %.not.i17, label %54, label %39

39:                                               ; preds = %35
  %40 = getelementptr inbounds nuw i8, ptr %36, i64 8
  %41 = load i64, ptr %40, align 8
  %42 = add i64 %41, %38
  %43 = icmp ult i64 %31, %42
  br i1 %43, label %44, label %54

44:                                               ; preds = %39
  %45 = inttoptr i64 %31 to ptr
  %46 = sub i64 0, %38
  %47 = getelementptr inbounds i8, ptr %45, i64 %46
  %48 = getelementptr inbounds nuw i8, ptr %36, i64 32
  %49 = load i64, ptr %48, align 8
  %50 = getelementptr inbounds nuw i8, ptr %47, i64 %49
  %51 = getelementptr inbounds nuw i8, ptr %36, i64 24
  %52 = load i64, ptr %51, align 8
  %53 = getelementptr inbounds nuw i8, ptr %50, i64 %52
  br label %qva_to_va.exit21

54:                                               ; preds = %39, %35
  %indvars.iv.next.i18 = add nuw nsw i64 %indvars.iv.i16, 1
  %exitcond.not.i19 = icmp eq i64 %indvars.iv.next.i18, %wide.trip.count.i15
  br i1 %exitcond.not.i19, label %qva_to_va.exit21, label %35

qva_to_va.exit21:                                 ; preds = %54, %qva_to_va.exit, %44
  %.2.i20 = phi ptr [ %53, %44 ], [ null, %qva_to_va.exit ], [ null, %54 ]
  %55 = getelementptr inbounds nuw i8, ptr %1, i64 24
  store ptr %.2.i20, ptr %55, align 8
  %56 = getelementptr inbounds nuw i8, ptr %1, i64 152
  %57 = load i64, ptr %56, align 8
  %58 = load i32, ptr %5, align 4
  %.not24.i22 = icmp eq i32 %58, 0
  br i1 %.not24.i22, label %qva_to_va.exit30, label %.lr.ph.i23

.lr.ph.i23:                                       ; preds = %qva_to_va.exit21
  %59 = getelementptr inbounds nuw i8, ptr %0, i64 8
  %60 = load ptr, ptr %59, align 8
  %wide.trip.count.i24 = zext i32 %58 to i64
  br label %61

61:                                               ; preds = %80, %.lr.ph.i23
  %indvars.iv.i25 = phi i64 [ 0, %.lr.ph.i23 ], [ %indvars.iv.next.i27, %80 ]
  %62 = getelementptr inbounds nuw %struct.VuDevRegion, ptr %60, i64 %indvars.iv.i25
  %63 = getelementptr inbounds nuw i8, ptr %62, i64 16
  %64 = load i64, ptr %63, align 8
  %.not.i26 = icmp ult i64 %57, %64
  br i1 %.not.i26, label %80, label %65

65:                                               ; preds = %61
  %66 = getelementptr inbounds nuw i8, ptr %62, i64 8
  %67 = load i64, ptr %66, align 8
  %68 = add i64 %67, %64
  %69 = icmp ult i64 %57, %68
  br i1 %69, label %70, label %80

70:                                               ; preds = %65
  %71 = inttoptr i64 %57 to ptr
  %72 = sub i64 0, %64
  %73 = getelementptr inbounds i8, ptr %71, i64 %72
  %74 = getelementptr inbounds nuw i8, ptr %62, i64 32
  %75 = load i64, ptr %74, align 8
  %76 = getelementptr inbounds nuw i8, ptr %73, i64 %75
  %77 = getelementptr inbounds nuw i8, ptr %62, i64 24
  %78 = load i64, ptr %77, align 8
  %79 = getelementptr inbounds nuw i8, ptr %76, i64 %78
  br label %qva_to_va.exit30

80:                                               ; preds = %65, %61
  %indvars.iv.next.i27 = add nuw nsw i64 %indvars.iv.i25, 1
  %exitcond.not.i28 = icmp eq i64 %indvars.iv.next.i27, %wide.trip.count.i24
  br i1 %exitcond.not.i28, label %qva_to_va.exit30, label %61

qva_to_va.exit30:                                 ; preds = %80, %qva_to_va.exit21, %70
  %.2.i29 = phi ptr [ %79, %70 ], [ null, %qva_to_va.exit21 ], [ null, %80 ]
  %81 = getelementptr inbounds nuw i8, ptr %1, i64 16
  store ptr %.2.i29, ptr %81, align 8
  %.not = icmp eq ptr %.2.i, null
  br i1 %.not, label %84, label %82

82:                                               ; preds = %qva_to_va.exit30
  %.not12 = icmp eq ptr %.2.i20, null
  %83 = icmp eq ptr %.2.i29, null
  %spec.select = select i1 %.not12, i1 true, i1 %83
  br label %84

84:                                               ; preds = %82, %qva_to_va.exit30
  %85 = phi i1 [ true, %qva_to_va.exit30 ], [ %spec.select, %82 ]
  ret i1 %85
}